target datalayout = "e-m:e-p270:32:32-p271:32:32-p272:64:64-i64:64-i128:128-f80:128-n8:16:32:64-S128"
target triple = "x86_64-pc-linux-gnu"

%"struct.llvm::itanium_demangle::AbstractManglingParser" = type { ptr, ptr, %"class.llvm::itanium_demangle::PODSmallVector", %"class.llvm::itanium_demangle::PODSmallVector", %"class.llvm::itanium_demangle::PODSmallVector.0", %"class.llvm::itanium_demangle::PODSmallVector.1", %"class.llvm::itanium_demangle::PODSmallVector.2", i8, i8, i8, i64, [3 x i32], [12 x i8], %"class.(anonymous namespace)::DefaultAllocator" }
%"class.llvm::itanium_demangle::PODSmallVector" = type { ptr, ptr, ptr, [32 x ptr] }
%"class.llvm::itanium_demangle::PODSmallVector.0" = type { ptr, ptr, ptr, [8 x ptr] }
%"class.llvm::itanium_demangle::PODSmallVector.1" = type { ptr, ptr, ptr, [4 x ptr] }
%"class.llvm::itanium_demangle::PODSmallVector.2" = type { ptr, ptr, ptr, [4 x ptr] }
%"class.(anonymous namespace)::DefaultAllocator" = type { %"class.(anonymous namespace)::BumpPointerAllocator" }
%"class.(anonymous namespace)::BumpPointerAllocator" = type { [4096 x i8], ptr, [8 x i8] }
%"struct.llvm::ItaniumPartialDemangler" = type { ptr, ptr }
%"struct.(anonymous namespace)::BumpPointerAllocator::BlockMeta" = type { ptr, i64 }

; Function Attrs: mustprogress nounwind uwtable
define internal void @_ZN12_GLOBAL__N_120BumpPointerAllocatorC2Ev(ptr noundef nonnull align 16 dereferenceable(4104) %0) unnamed_addr #0 align 2 {
  %2 = alloca ptr, align 8
  store ptr %0, ptr %2, align 8
  %3 = load ptr, ptr %2, align 8
  %4 = getelementptr inbounds nuw %"class.(anonymous namespace)::BumpPointerAllocator", ptr %3, i32 0, i32 1
  %5 = getelementptr inbounds nuw %"class.(anonymous namespace)::BumpPointerAllocator", ptr %3, i32 0, i32 0
  %6 = getelementptr inbounds [4096 x i8], ptr %5, i64 0, i64 0
  %7 = getelementptr inbounds nuw %"struct.(anonymous namespace)::BumpPointerAllocator::BlockMeta", ptr %6, i32 0, i32 0
  store ptr null, ptr %7, align 16
  %8 = getelementptr inbounds nuw %"struct.(anonymous namespace)::BumpPointerAllocator::BlockMeta", ptr %6, i32 0, i32 1
  store i64 0, ptr %8, align 8
  store ptr %6, ptr %4, align 16
  ret void
}

; Function Attrs: mustprogress nounwind uwtable
define internal void @_ZN12_GLOBAL__N_116DefaultAllocatorC2Ev(ptr noundef nonnull align 16 dereferenceable(4112) %0) unnamed_addr #0 align 2 {
  %2 = alloca ptr, align 8
  store ptr %0, ptr %2, align 8
  %3 = load ptr, ptr %2, align 8
  %4 = getelementptr inbounds nuw %"class.(anonymous namespace)::DefaultAllocator", ptr %3, i32 0, i32 0
  call void @_ZN12_GLOBAL__N_120BumpPointerAllocatorC2Ev(ptr noundef nonnull align 16 dereferenceable(4104) %4)
  ret void
}

; Function Attrs: mustprogress nounwind uwtable
define linkonce_odr hidden void @_ZN4llvm16itanium_demangle14PODSmallVectorIPNS0_24ForwardTemplateReferenceELm4EEC2Ev(ptr noundef nonnull align 8 dereferenceable(56) %0) unnamed_addr #0 comdat align 2 {
  %2 = alloca ptr, align 8
  store ptr %0, ptr %2, align 8
  %3 = load ptr, ptr %2, align 8
  %4 = getelementptr inbounds nuw %"class.llvm::itanium_demangle::PODSmallVector.2", ptr %3, i32 0, i32 0
  %5 = getelementptr inbounds nuw %"class.llvm::itanium_demangle::PODSmallVector.2", ptr %3, i32 0, i32 3
  %6 = getelementptr inbounds [4 x ptr], ptr %5, i64 0, i64 0
  store ptr %6, ptr %4, align 8
  %7 = getelementptr inbounds nuw %"class.llvm::itanium_demangle::PODSmallVector.2", ptr %3, i32 0, i32 1
  %8 = getelementptr inbounds nuw %"class.llvm::itanium_demangle::PODSmallVector.2", ptr %3, i32 0, i32 0
  %9 = load ptr, ptr %8, align 8
  store ptr %9, ptr %7, align 8
  %10 = getelementptr inbounds nuw %"class.llvm::itanium_demangle::PODSmallVector.2", ptr %3, i32 0, i32 2
  %11 = getelementptr inbounds nuw %"class.llvm::itanium_demangle::PODSmallVector.2", ptr %3, i32 0, i32 3
  %12 = getelementptr inbounds [4 x ptr], ptr %11, i64 0, i64 0
  %13 = getelementptr inbounds ptr, ptr %12, i64 4
  store ptr %13, ptr %10, align 8
  %14 = getelementptr inbounds nuw %"class.llvm::itanium_demangle::PODSmallVector.2", ptr %3, i32 0, i32 3
  %15 = getelementptr inbounds ptr, ptr %14, i64 4
  br label %16

16:                                               ; preds = %16, %1
  %17 = phi ptr [ %14, %1 ], [ %18, %16 ]
  store ptr null, ptr %17, align 8
  %18 = getelementptr inbounds ptr, ptr %17, i64 1
  %19 = icmp eq ptr %18, %15
  br i1 %19, label %20, label %16

20:                                               ; preds = %16
  ret void
}

; Function Attrs: mustprogress nounwind uwtable
define linkonce_odr hidden void @_ZN4llvm16itanium_demangle14PODSmallVectorIPNS1_IPNS0_4NodeELm8EEELm4EEC2Ev(ptr noundef nonnull align 8 dereferenceable(56) %0) unnamed_addr #0 comdat align 2 {
  %2 = alloca ptr, align 8
  store ptr %0, ptr %2, align 8
  %3 = load ptr, ptr %2, align 8
  %4 = getelementptr inbounds nuw %"class.llvm::itanium_demangle::PODSmallVector.1", ptr %3, i32 0, i32 0
  %5 = getelementptr inbounds nuw %"class.llvm::itanium_demangle::PODSmallVector.1", ptr %3, i32 0, i32 3
  %6 = getelementptr inbounds [4 x ptr], ptr %5, i64 0, i64 0
  store ptr %6, ptr %4, align 8
  %7 = getelementptr inbounds nuw %"class.llvm::itanium_demangle::PODSmallVector.1", ptr %3, i32 0, i32 1
  %8 = getelementptr inbounds nuw %"class.llvm::itanium_demangle::PODSmallVector.1", ptr %3, i32 0, i32 0
  %9 = load ptr, ptr %8, align 8
  store ptr %9, ptr %7, align 8
  %10 = getelementptr inbounds nuw %"class.llvm::itanium_demangle::PODSmallVector.1", ptr %3, i32 0, i32 2
  %11 = getelementptr inbounds nuw %"class.llvm::itanium_demangle::PODSmallVector.1", ptr %3, i32 0, i32 3
  %12 = getelementptr inbounds [4 x ptr], ptr %11, i64 0, i64 0
  %13 = getelementptr inbounds ptr, ptr %12, i64 4
  store ptr %13, ptr %10, align 8
  %14 = getelementptr inbounds nuw %"class.llvm::itanium_demangle::PODSmallVector.1", ptr %3, i32 0, i32 3
  %15 = getelementptr inbounds ptr, ptr %14, i64 4
  br label %16

16:                                               ; preds = %16, %1
  %17 = phi ptr [ %14, %1 ], [ %18, %16 ]
  store ptr null, ptr %17, align 8
  %18 = getelementptr inbounds ptr, ptr %17, i64 1
  %19 = icmp eq ptr %18, %15
  br i1 %19, label %20, label %16

20:                                               ; preds = %16
  ret void
}

; Function Attrs: mustprogress nounwind uwtable
define linkonce_odr hidden void @_ZN4llvm16itanium_demangle14PODSmallVectorIPNS0_4NodeELm8EEC2Ev(ptr noundef nonnull align 8 dereferenceable(88) %0) unnamed_addr #0 comdat align 2 {
  %2 = alloca ptr, align 8
  store ptr %0, ptr %2, align 8
  %3 = load ptr, ptr %2, align 8
  %4 = getelementptr inbounds nuw %"class.llvm::itanium_demangle::PODSmallVector.0", ptr %3, i32 0, i32 0
  %5 = getelementptr inbounds nuw %"class.llvm::itanium_demangle::PODSmallVector.0", ptr %3, i32 0, i32 3
  %6 = getelementptr inbounds [8 x ptr], ptr %5, i64 0, i64 0
  store ptr %6, ptr %4, align 8
  %7 = getelementptr inbounds nuw %"class.llvm::itanium_demangle::PODSmallVector.0", ptr %3, i32 0, i32 1
  %8 = getelementptr inbounds nuw %"class.llvm::itanium_demangle::PODSmallVector.0", ptr %3, i32 0, i32 0
  %9 = load ptr, ptr %8, align 8
  store ptr %9, ptr %7, align 8
  %10 = getelementptr inbounds nuw %"class.llvm::itanium_demangle::PODSmallVector.0", ptr %3, i32 0, i32 2
  %11 = getelementptr inbounds nuw %"class.llvm::itanium_demangle::PODSmallVector.0", ptr %3, i32 0, i32 3
  %12 = getelementptr inbounds [8 x ptr], ptr %11, i64 0, i64 0
  %13 = getelementptr inbounds ptr, ptr %12, i64 8
  store ptr %13, ptr %10, align 8
  %14 = getelementptr inbounds nuw %"class.llvm::itanium_demangle::PODSmallVector.0", ptr %3, i32 0, i32 3
  %15 = getelementptr inbounds ptr, ptr %14, i64 8
  br label %16

16:                                               ; preds = %16, %1
  %17 = phi ptr [ %14, %1 ], [ %18, %16 ]
  store ptr null, ptr %17, align 8
  %18 = getelementptr inbounds ptr, ptr %17, i64 1
  %19 = icmp eq ptr %18, %15
  br i1 %19, label %20, label %16

20:                                               ; preds = %16
  ret void
}

; Function Attrs: mustprogress nounwind uwtable
define linkonce_odr hidden void @_ZN4llvm16itanium_demangle14PODSmallVectorIPNS0_4NodeELm32EEC2Ev(ptr noundef nonnull align 8 dereferenceable(280) %0) unnamed_addr #0 comdat align 2 {
  %2 = alloca ptr, align 8
  store ptr %0, ptr %2, align 8
  %3 = load ptr, ptr %2, align 8
  %4 = getelementptr inbounds nuw %"class.llvm::itanium_demangle::PODSmallVector", ptr %3, i32 0, i32 0
  %5 = getelementptr inbounds nuw %"class.llvm::itanium_demangle::PODSmallVector", ptr %3, i32 0, i32 3
  %6 = getelementptr inbounds [32 x ptr], ptr %5, i64 0, i64 0
  store ptr %6, ptr %4, align 8
  %7 = getelementptr inbounds nuw %"class.llvm::itanium_demangle::PODSmallVector", ptr %3, i32 0, i32 1
  %8 = getelementptr inbounds nuw %"class.llvm::itanium_demangle::PODSmallVector", ptr %3, i32 0, i32 0
  %9 = load ptr, ptr %8, align 8
  store ptr %9, ptr %7, align 8
  %10 = getelementptr inbounds nuw %"class.llvm::itanium_demangle::PODSmallVector", ptr %3, i32 0, i32 2
  %11 = getelementptr inbounds nuw %"class.llvm::itanium_demangle::PODSmallVector", ptr %3, i32 0, i32 3
  %12 = getelementptr inbounds [32 x ptr], ptr %11, i64 0, i64 0
  %13 = getelementptr inbounds ptr, ptr %12, i64 32
  store ptr %13, ptr %10, align 8
  %14 = getelementptr inbounds nuw %"class.llvm::itanium_demangle::PODSmallVector", ptr %3, i32 0, i32 3
  %15 = getelementptr inbounds ptr, ptr %14, i64 32
  br label %16

16:                                               ; preds = %16, %1
  %17 = phi ptr [ %14, %1 ], [ %18, %16 ]
  store ptr null, ptr %17, align 8
  %18 = getelementptr inbounds ptr, ptr %17, i64 1
  %19 = icmp eq ptr %18, %15
  br i1 %19, label %20, label %16

20:                                               ; preds = %16
  ret void
}

; Function Attrs: mustprogress nounwind uwtable
define internal void @_ZN4llvm16itanium_demangle22AbstractManglingParserINS0_14ManglingParserIN12_GLOBAL__N_116DefaultAllocatorEEES4_EC2EPKcS8_(ptr noundef nonnull align 16 dereferenceable(4928) %0, ptr noundef %1, ptr noundef %2) unnamed_addr #0 align 2 {
  %4 = alloca ptr, align 8
  %5 = alloca ptr, align 8
  %6 = alloca ptr, align 8
  store ptr %0, ptr %4, align 8
  store ptr %1, ptr %5, align 8
  store ptr %2, ptr %6, align 8
  %7 = load ptr, ptr %4, align 8
  %8 = getelementptr inbounds nuw %"struct.llvm::itanium_demangle::AbstractManglingParser", ptr %7, i32 0, i32 0
  %9 = load ptr, ptr %5, align 8
  store ptr %9, ptr %8, align 16
  %10 = getelementptr inbounds nuw %"struct.llvm::itanium_demangle::AbstractManglingParser", ptr %7, i32 0, i32 1
  %11 = load ptr, ptr %6, align 8
  store ptr %11, ptr %10, align 8
  %12 = getelementptr inbounds nuw %"struct.llvm::itanium_demangle::AbstractManglingParser", ptr %7, i32 0, i32 2
  call void @_ZN4llvm16itanium_demangle14PODSmallVectorIPNS0_4NodeELm32EEC2Ev(ptr noundef nonnull align 8 dereferenceable(280) %12)
  %13 = getelementptr inbounds nuw %"struct.llvm::itanium_demangle::AbstractManglingParser", ptr %7, i32 0, i32 3
  call void @_ZN4llvm16itanium_demangle14PODSmallVectorIPNS0_4NodeELm32EEC2Ev(ptr noundef nonnull align 8 dereferenceable(280) %13)
  %14 = getelementptr inbounds nuw %"struct.llvm::itanium_demangle::AbstractManglingParser", ptr %7, i32 0, i32 4
  call void @_ZN4llvm16itanium_demangle14PODSmallVectorIPNS0_4NodeELm8EEC2Ev(ptr noundef nonnull align 8 dereferenceable(88) %14)
  %15 = getelementptr inbounds nuw %"struct.llvm::itanium_demangle::AbstractManglingParser", ptr %7, i32 0, i32 5
  call void @_ZN4llvm16itanium_demangle14PODSmallVectorIPNS1_IPNS0_4NodeELm8EEELm4EEC2Ev(ptr noundef nonnull align 8 dereferenceable(56) %15)
  %16 = getelementptr inbounds nuw %"struct.llvm::itanium_demangle::AbstractManglingParser", ptr %7, i32 0, i32 6
  call void @_ZN4llvm16itanium_demangle14PODSmallVectorIPNS0_24ForwardTemplateReferenceELm4EEC2Ev(ptr noundef nonnull align 8 dereferenceable(56) %16)
  %17 = getelementptr inbounds nuw %"struct.llvm::itanium_demangle::AbstractManglingParser", ptr %7, i32 0, i32 7
  store i8 1, ptr %17, align 8
  %18 = getelementptr inbounds nuw %"struct.llvm::itanium_demangle::AbstractManglingParser", ptr %7, i32 0, i32 8
  store i8 0, ptr %18, align 1
  %19 = getelementptr inbounds nuw %"struct.llvm::itanium_demangle::AbstractManglingParser", ptr %7, i32 0, i32 9
  store i8 0, ptr %19, align 2
  %20 = getelementptr inbounds nuw %"struct.llvm::itanium_demangle::AbstractManglingParser", ptr %7, i32 0, i32 10
  store i64 -1, ptr %20, align 16
  %21 = getelementptr inbounds nuw %"struct.llvm::itanium_demangle::AbstractManglingParser", ptr %7, i32 0, i32 11
  %22 = getelementptr inbounds i32, ptr %21, i64 3
  br label %23

23:                                               ; preds = %23, %3
  %24 = phi ptr [ %21, %3 ], [ %25, %23 ]
  store i32 0, ptr %24, align 4
  %25 = getelementptr inbounds i32, ptr %24, i64 1
  %26 = icmp eq ptr %25, %22
  br i1 %26, label %27, label %23

27:                                               ; preds = %23
  %28 = getelementptr inbounds nuw %"struct.llvm::itanium_demangle::AbstractManglingParser", ptr %7, i32 0, i32 13
  call void @_ZN12_GLOBAL__N_116DefaultAllocatorC2Ev(ptr noundef nonnull align 16 dereferenceable(4112) %28)
  ret void
}

; Function Attrs: mustprogress nounwind uwtable
define internal void @_ZN4llvm16itanium_demangle14ManglingParserIN12_GLOBAL__N_116DefaultAllocatorEECI2NS0_22AbstractManglingParserIS4_S3_EEEPKcS7_(ptr noundef nonnull align 16 dereferenceable(4928) %0, ptr noundef %1, ptr noundef %2) unnamed_addr #0 align 2 {
  %4 = alloca ptr, align 8
  %5 = alloca ptr, align 8
  %6 = alloca ptr, align 8
  store ptr %0, ptr %4, align 8
  store ptr %1, ptr %5, align 8
  store ptr %2, ptr %6, align 8
  %7 = load ptr, ptr %4, align 8
  %8 = load ptr, ptr %5, align 8
  %9 = load ptr, ptr %6, align 8
  call void @_ZN4llvm16itanium_demangle22AbstractManglingParserINS0_14ManglingParserIN12_GLOBAL__N_116DefaultAllocatorEEES4_EC2EPKcS8_(ptr noundef nonnull align 16 dereferenceable(4928) %7, ptr noundef %8, ptr noundef %9)
  ret void
}

; Function Attrs: mustprogress nounwind uwtable
define dso_local void @_ZN4llvm23ItaniumPartialDemanglerC2Ev(ptr noundef nonnull align 8 dereferenceable(16) %0) unnamed_addr #0 align 2 {
  %2 = alloca ptr, align 8
  store ptr %0, ptr %2, align 8
  %3 = load ptr, ptr %2, align 8
  %4 = getelementptr inbounds nuw %"struct.llvm::ItaniumPartialDemangler", ptr %3, i32 0, i32 0
  store ptr null, ptr %4, align 8
  %5 = getelementptr inbounds nuw %"struct.llvm::ItaniumPartialDemangler", ptr %3, i32 0, i32 1
  %6 = call noalias noundef nonnull ptr @_Znwm(i64 noundef 4928) #15
  call void @_ZN4llvm16itanium_demangle14ManglingParserIN12_GLOBAL__N_116DefaultAllocatorEECI2NS0_22AbstractManglingParserIS4_S3_EEEPKcS7_(ptr noundef nonnull align 16 dereferenceable(4928) %6, ptr noundef null, ptr noundef null)
  store ptr %6, ptr %5, align 8
  ret void
}