; Function Attrs: mustprogress nounwind uwtable
define dso_local void @_ZN4llvm23ItaniumPartialDemanglerC2Ev(ptr nocapture noundef nonnull writeonly align 8 dereferenceable(16) %0) unnamed_addr #1 align 2 {
  store ptr null, ptr %0, align 8
  %2 = getelementptr inbounds nuw i8, ptr %0, i64 8
  %3 = tail call noalias noundef nonnull dereferenceable(4928) ptr @_Znwm(i64 noundef 4928) #24
  %4 = getelementptr inbounds nuw i8, ptr %3, i64 16
  %.ptr2.i.i.i = getelementptr inbounds i8, ptr %3, i64 40
  tail call void @llvm.memset.p0.i64(ptr noundef nonnull align 16 dereferenceable(16) %3, i8 0, i64 16, i1 false)
  store ptr %.ptr2.i.i.i, ptr %4, align 8
  %5 = getelementptr inbounds i8, ptr %3, i64 24
  store ptr %.ptr2.i.i.i, ptr %5, align 8
  %6 = getelementptr inbounds i8, ptr %3, i64 32
  %7 = getelementptr inbounds i8, ptr %3, i64 296
  store ptr %7, ptr %6, align 8
  tail call void @llvm.memset.p0.i64(ptr noundef nonnull align 8 dereferenceable(256) %.ptr2.i.i.i, i8 0, i64 256, i1 false)
  %.ptr2.i5.i.i = getelementptr inbounds i8, ptr %3, i64 320
  store ptr %.ptr2.i5.i.i, ptr %7, align 8
  %8 = getelementptr inbounds i8, ptr %3, i64 304
  store ptr %.ptr2.i5.i.i, ptr %8, align 8
  %9 = getelementptr inbounds i8, ptr %3, i64 312
  %10 = getelementptr inbounds i8, ptr %3, i64 576
  store ptr %10, ptr %9, align 8
  tail call void @llvm.memset.p0.i64(ptr noundef nonnull align 16 dereferenceable(256) %.ptr2.i5.i.i, i8 0, i64 256, i1 false)
  %.ptr2.i6.i.i = getelementptr inbounds i8, ptr %3, i64 600
  store ptr %.ptr2.i6.i.i, ptr %10, align 8
  %11 = getelementptr inbounds i8, ptr %3, i64 584
  store ptr %.ptr2.i6.i.i, ptr %11, align 8
  %12 = getelementptr inbounds i8, ptr %3, i64 592
  %13 = getelementptr inbounds i8, ptr %3, i64 664
  store ptr %13, ptr %12, align 8
  tail call void @llvm.memset.p0.i64(ptr noundef nonnull align 8 dereferenceable(64) %.ptr2.i6.i.i, i8 0, i64 64, i1 false)
  %.ptr2.i7.i.i = getelementptr inbounds i8, ptr %3, i64 688
  store ptr %.ptr2.i7.i.i, ptr %13, align 8
  %14 = getelementptr inbounds i8, ptr %3, i64 672
  store ptr %.ptr2.i7.i.i, ptr %14, align 8
  %15 = getelementptr inbounds i8, ptr %3, i64 680
  %16 = getelementptr inbounds i8, ptr %3, i64 720
  store ptr %16, ptr %15, align 8
  tail call void @llvm.memset.p0.i64(ptr noundef nonnull align 16 dereferenceable(32) %.ptr2.i7.i.i, i8 0, i64 32, i1 false)
  %.ptr2.i8.i.i = getelementptr inbounds i8, ptr %3, i64 744
  store ptr %.ptr2.i8.i.i, ptr %16, align 8
  %17 = getelementptr inbounds i8, ptr %3, i64 728
  store ptr %.ptr2.i8.i.i, ptr %17, align 8
  %18 = getelementptr inbounds i8, ptr %3, i64 736
  %19 = getelementptr inbounds i8, ptr %3, i64 776
  store ptr %19, ptr %18, align 8
  tail call void @llvm.memset.p0.i64(ptr noundef nonnull align 8 dereferenceable(32) %.ptr2.i8.i.i, i8 0, i64 32, i1 false)
  store i8 1, ptr %19, align 8
  %20 = getelementptr inbounds nuw i8, ptr %3, i64 777
  store i8 0, ptr %20, align 1
  %21 = getelementptr inbounds nuw i8, ptr %3, i64 778
  store i8 0, ptr %21, align 2
  %22 = getelementptr inbounds nuw i8, ptr %3, i64 784
  store i64 -1, ptr %22, align 16
  %scevgep.i.i = getelementptr inbounds i8, ptr %3, i64 792
  tail call void @llvm.memset.p0.i64(ptr noundef nonnull align 8 dereferenceable(12) %scevgep.i.i, i8 0, i64 12, i1 false)
  %23 = getelementptr inbounds nuw i8, ptr %3, i64 816
  %24 = getelementptr inbounds i8, ptr %3, i64 4912
  tail call void @llvm.memset.p0.i64(ptr noundef nonnull align 16 dereferenceable(16) %23, i8 0, i64 16, i1 false)
  store ptr %23, ptr %24, align 16
  store ptr %3, ptr %2, align 8
  ret void
}